target datalayout = "e-m:e-p270:32:32-p271:32:32-p272:64:64-i64:64-i128:128-f80:128-n8:16:32:64-S128"
target triple = "x86_64-unknown-linux-gnu"

%"class.icu_75::RBBIRuleBuilder" = type { ptr, ptr, ptr, ptr, ptr, %"class.icu_75::UnicodeString", ptr, ptr, ptr, ptr, ptr, ptr, i8, i8, ptr, ptr, ptr, ptr }
%"class.icu_75::UnicodeString" = type { %"class.icu_75::Replaceable", %"union.icu_75::UnicodeString::StackBufferOrFields" }
%"class.icu_75::Replaceable" = type { %"class.icu_75::UObject" }
%"class.icu_75::UObject" = type { ptr }
%"union.icu_75::UnicodeString::StackBufferOrFields" = type { %struct.anon.0, [32 x i8] }
%struct.anon.0 = type { i16, i32, i32, ptr }

@_ZN6icu_7515RBBIRuleBuilderC1ERKNS_13UnicodeStringEP11UParseErrorR10UErrorCode = unnamed_addr alias void (ptr, ptr, ptr, ptr), ptr @_ZN6icu_7515RBBIRuleBuilderC2ERKNS_13UnicodeStringEP11UParseErrorR10UErrorCode
@_ZN6icu_7515RBBIRuleBuilderD1Ev = unnamed_addr alias void (ptr), ptr @_ZN6icu_7515RBBIRuleBuilderD2Ev

; Function Attrs: mustprogress nounwind uwtable
define internal noundef signext i8 @_ZL9U_FAILURE10UErrorCode(i32 noundef %code) #3 {
entry:
  %code.addr = alloca i32, align 4
  store i32 %code, ptr %code.addr, align 4
  %0 = load i32, ptr %code.addr, align 4
  %cmp = icmp sgt i32 %0, 0
  %conv = zext i1 %cmp to i8
  ret i8 %conv
}

; Function Attrs: mustprogress uwtable
define noundef ptr @_ZN6icu_7515RBBIRuleBuilder28createRuleBasedBreakIteratorERKNS_13UnicodeStringEP11UParseErrorR10UErrorCode(ptr noundef nonnull align 8 dereferenceable(64) %rules, ptr noundef %parseError, ptr noundef nonnull align 4 dereferenceable(4) %status) #0 align 2 personality ptr @__gxx_personality_v0 {
entry:
  %retval = alloca ptr, align 8
  %rules.addr = alloca ptr, align 8
  %parseError.addr = alloca ptr, align 8
  %status.addr = alloca ptr, align 8
  %builder = alloca %"class.icu_75::RBBIRuleBuilder", align 8
  %exn.slot = alloca ptr, align 8
  %ehselector.slot = alloca i32, align 4
  %cleanup.dest.slot = alloca i32, align 4
  %data = alloca ptr, align 8
  %This = alloca ptr, align 8
  %saved-rvalue = alloca ptr, align 8
  %cleanup.cond = alloca i1, align 1
  store ptr %rules, ptr %rules.addr, align 8
  store ptr %parseError, ptr %parseError.addr, align 8
  store ptr %status, ptr %status.addr, align 8
  %0 = load ptr, ptr %rules.addr, align 8
  %1 = load ptr, ptr %parseError.addr, align 8
  %2 = load ptr, ptr %status.addr, align 8
  call void @_ZN6icu_7515RBBIRuleBuilderC1ERKNS_13UnicodeStringEP11UParseErrorR10UErrorCode(ptr noundef nonnull align 8 dereferenceable(192) %builder, ptr noundef nonnull align 8 dereferenceable(64) %0, ptr noundef %1, ptr noundef nonnull align 4 dereferenceable(4) %2)
  %3 = load ptr, ptr %status.addr, align 8
  %4 = load i32, ptr %3, align 4
  %call = invoke noundef signext i8 @_ZL9U_FAILURE10UErrorCode(i32 noundef %4)
          to label %invoke.cont unwind label %lpad

invoke.cont:                                      ; preds = %entry
  %tobool = icmp ne i8 %call, 0
  br i1 %tobool, label %if.then, label %if.end

if.then:                                          ; preds = %invoke.cont
  store ptr null, ptr %retval, align 8
  store i32 1, ptr %cleanup.dest.slot, align 4
  br label %cleanup

lpad:                                             ; preds = %new.cont, %invoke.cont1, %if.end, %entry
  %5 = landingpad { ptr, i32 }
          cleanup
  %6 = extractvalue { ptr, i32 } %5, 0
  store ptr %6, ptr %exn.slot, align 8
  %7 = extractvalue { ptr, i32 } %5, 1
  store i32 %7, ptr %ehselector.slot, align 4
  br label %ehcleanup

if.end:                                           ; preds = %invoke.cont
  %8 = load ptr, ptr %status.addr, align 8
  %call2 = invoke noundef ptr @_ZN6icu_7515RBBIRuleBuilder5buildER10UErrorCode(ptr noundef nonnull align 8 dereferenceable(192) %builder, ptr noundef nonnull align 4 dereferenceable(4) %8)
          to label %invoke.cont1 unwind label %lpad

invoke.cont1:                                     ; preds = %if.end
  store ptr %call2, ptr %data, align 8
  %9 = load ptr, ptr %status.addr, align 8
  %10 = load i32, ptr %9, align 4
  %call4 = invoke noundef signext i8 @_ZL9U_FAILURE10UErrorCode(i32 noundef %10)
          to label %invoke.cont3 unwind label %lpad

invoke.cont3:                                     ; preds = %invoke.cont1
  %tobool5 = icmp ne i8 %call4, 0
  br i1 %tobool5, label %if.then6, label %if.end7

if.then6:                                         ; preds = %invoke.cont3
  store ptr null, ptr %retval, align 8
  store i32 1, ptr %cleanup.dest.slot, align 4
  br label %cleanup

if.end7:                                          ; preds = %invoke.cont3
  %call8 = call noundef ptr @_ZN6icu_757UMemorynwEm(i64 noundef 752) #8
  %new.isnull = icmp eq ptr %call8, null
  store i1 false, ptr %cleanup.cond, align 1
  br i1 %new.isnull, label %new.cont, label %new.notnull

new.notnull:                                      ; preds = %if.end7
  store ptr %call8, ptr %saved-rvalue, align 8
  store i1 true, ptr %cleanup.cond, align 1
  %11 = load ptr, ptr %data, align 8
  %12 = load ptr, ptr %status.addr, align 8
  invoke void @_ZN6icu_7522RuleBasedBreakIteratorC1EPNS_14RBBIDataHeaderER10UErrorCode(ptr noundef nonnull align 8 dereferenceable(745) %call8, ptr noundef %11, ptr noundef nonnull align 4 dereferenceable(4) %12)
          to label %invoke.cont10 unwind label %lpad9

invoke.cont10:                                    ; preds = %new.notnull
  br label %new.cont

new.cont:                                         ; preds = %invoke.cont10, %if.end7
  %13 = phi ptr [ %call8, %invoke.cont10 ], [ null, %if.end7 ]
  store ptr %13, ptr %This, align 8
  %14 = load ptr, ptr %status.addr, align 8
  %15 = load i32, ptr %14, align 4
  %call12 = invoke noundef signext i8 @_ZL9U_FAILURE10UErrorCode(i32 noundef %15)
          to label %invoke.cont11 unwind label %lpad

invoke.cont11:                                    ; preds = %new.cont
  %tobool13 = icmp ne i8 %call12, 0
  br i1 %tobool13, label %if.then14, label %if.else

if.then14:                                        ; preds = %invoke.cont11
  %16 = load ptr, ptr %This, align 8
  %isnull = icmp eq ptr %16, null
  br i1 %isnull, label %delete.end, label %delete.notnull

delete.notnull:                                   ; preds = %if.then14
  %vtable = load ptr, ptr %16, align 8
  %vfn = getelementptr inbounds ptr, ptr %vtable, i64 1
  %17 = load ptr, ptr %vfn, align 8
  call void %17(ptr noundef nonnull align 8 dereferenceable(745) %16) #8
  br label %delete.end

delete.end:                                       ; preds = %delete.notnull, %if.then14
  store ptr null, ptr %This, align 8
  br label %if.end17

lpad9:                                            ; preds = %new.notnull
  %18 = landingpad { ptr, i32 }
          cleanup
  %19 = extractvalue { ptr, i32 } %18, 0
  store ptr %19, ptr %exn.slot, align 8
  %20 = extractvalue { ptr, i32 } %18, 1
  store i32 %20, ptr %ehselector.slot, align 4
  %cleanup.is_active = load i1, ptr %cleanup.cond, align 1
  br i1 %cleanup.is_active, label %cleanup.action, label %cleanup.done

cleanup.action:                                   ; preds = %lpad9
  %21 = load ptr, ptr %saved-rvalue, align 8
  call void @_ZN6icu_757UMemorydlEPv(ptr noundef %21) #8
  br label %cleanup.done

cleanup.done:                                     ; preds = %cleanup.action, %lpad9
  br label %ehcleanup

if.else:                                          ; preds = %invoke.cont11
  %22 = load ptr, ptr %This, align 8
  %cmp = icmp eq ptr %22, null
  br i1 %cmp, label %if.then15, label %if.end16

if.then15:                                        ; preds = %if.else
  %23 = load ptr, ptr %status.addr, align 8
  store i32 7, ptr %23, align 4
  br label %if.end16

if.end16:                                         ; preds = %if.then15, %if.else
  br label %if.end17

if.end17:                                         ; preds = %if.end16, %delete.end
  %24 = load ptr, ptr %This, align 8
  store ptr %24, ptr %retval, align 8
  store i32 1, ptr %cleanup.dest.slot, align 4
  br label %cleanup

cleanup:                                          ; preds = %if.end17, %if.then6, %if.then
  call void @_ZN6icu_7515RBBIRuleBuilderD1Ev(ptr noundef nonnull align 8 dereferenceable(192) %builder) #8
  %25 = load ptr, ptr %retval, align 8
  ret ptr %25

ehcleanup:                                        ; preds = %cleanup.done, %lpad
  call void @_ZN6icu_7515RBBIRuleBuilderD1Ev(ptr noundef nonnull align 8 dereferenceable(192) %builder) #8
  br label %eh.resume

eh.resume:                                        ; preds = %ehcleanup
  %exn = load ptr, ptr %exn.slot, align 8
  %sel = load i32, ptr %ehselector.slot, align 4
  %lpad.val = insertvalue { ptr, i32 } poison, ptr %exn, 0
  %lpad.val18 = insertvalue { ptr, i32 } %lpad.val, i32 %sel, 1
  resume { ptr, i32 } %lpad.val18
}