; Function Attrs: mustprogress uwtable
define noundef ptr @_ZN6icu_7515RBBIRuleBuilder28createRuleBasedBreakIteratorERKNS_13UnicodeStringEP11UParseErrorR10UErrorCode(ptr noundef nonnull align 8 dereferenceable(64) %rules, ptr noundef %parseError, ptr noundef nonnull align 4 dereferenceable(4) %status) local_unnamed_addr #0 align 2 personality ptr @__gxx_personality_v0 {
entry:
  %builder = alloca %"class.icu_75::RBBIRuleBuilder", align 8
  call void @_ZN6icu_7515RBBIRuleBuilderC1ERKNS_13UnicodeStringEP11UParseErrorR10UErrorCode(ptr noundef nonnull align 8 dereferenceable(192) %builder, ptr noundef nonnull align 8 dereferenceable(64) %rules, ptr noundef %parseError, ptr noundef nonnull align 4 dereferenceable(4) %status)
  %0 = load i32, ptr %status, align 4
  %cmp.i = icmp slt i32 %0, 1
  br i1 %cmp.i, label %if.end, label %cleanup

lpad:                                             ; preds = %if.end
  %1 = landingpad { ptr, i32 }
          cleanup
  br label %ehcleanup

if.end:                                           ; preds = %entry
  %call2 = invoke noundef ptr @_ZN6icu_7515RBBIRuleBuilder5buildER10UErrorCode(ptr noundef nonnull align 8 dereferenceable(192) %builder, ptr noundef nonnull align 4 dereferenceable(4) %status)
          to label %invoke.cont1 unwind label %lpad

invoke.cont1:                                     ; preds = %if.end
  %2 = load i32, ptr %status, align 4
  %cmp.i10 = icmp slt i32 %2, 1
  br i1 %cmp.i10, label %if.end7, label %cleanup

if.end7:                                          ; preds = %invoke.cont1
  %call8 = call noundef ptr @_ZN6icu_757UMemorynwEm(i64 noundef 752) #8
  %new.isnull = icmp eq ptr %call8, null
  br i1 %new.isnull, label %new.cont.thread, label %new.notnull

new.notnull:                                      ; preds = %if.end7
  invoke void @_ZN6icu_7522RuleBasedBreakIteratorC1EPNS_14RBBIDataHeaderER10UErrorCode(ptr noundef nonnull align 8 dereferenceable(745) %call8, ptr noundef %call2, ptr noundef nonnull align 4 dereferenceable(4) %status)
          to label %new.cont unwind label %lpad9

new.cont:                                         ; preds = %new.notnull
  %3 = load i32, ptr %status, align 4
  %cmp.i12 = icmp slt i32 %3, 1
  br i1 %cmp.i12, label %cleanup, label %delete.notnull

new.cont.thread:                                  ; preds = %if.end7
  %4 = load i32, ptr %status, align 4
  %cmp.i1214 = icmp slt i32 %4, 1
  br i1 %cmp.i1214, label %if.then15, label %cleanup

delete.notnull:                                   ; preds = %new.cont
  %vtable = load ptr, ptr %call8, align 8
  %vfn = getelementptr inbounds i8, ptr %vtable, i64 8
  %5 = load ptr, ptr %vfn, align 8
  call void %5(ptr noundef nonnull align 8 dereferenceable(745) %call8) #8
  br label %cleanup

lpad9:                                            ; preds = %new.notnull
  %6 = landingpad { ptr, i32 }
          cleanup
  call void @_ZN6icu_757UMemorydlEPv(ptr noundef nonnull %call8) #8
  br label %ehcleanup

if.then15:                                        ; preds = %new.cont.thread
  store i32 7, ptr %status, align 4
  br label %cleanup

cleanup:                                          ; preds = %new.cont.thread, %new.cont, %if.then15, %delete.notnull, %invoke.cont1, %entry
  %retval.0 = phi ptr [ null, %entry ], [ null, %invoke.cont1 ], [ null, %if.then15 ], [ null, %delete.notnull ], [ %call8, %new.cont ], [ null, %new.cont.thread ]
  call void @_ZN6icu_7515RBBIRuleBuilderD1Ev(ptr noundef nonnull align 8 dereferenceable(192) %builder) #8
  ret ptr %retval.0

ehcleanup:                                        ; preds = %lpad9, %lpad
  %.pn = phi { ptr, i32 } [ %6, %lpad9 ], [ %1, %lpad ]
  call void @_ZN6icu_7515RBBIRuleBuilderD1Ev(ptr noundef nonnull align 8 dereferenceable(192) %builder) #8
  resume { ptr, i32 } %.pn
}